; Function Attrs: mustprogress uwtable
define noundef i32 @_ZN3zmq13zmtp_engine_t14routing_id_msgEPNS_5msg_tE(ptr nocapture noundef nonnull align 8 dereferenceable(1976) %this, ptr noundef nonnull %msg_) #0 align 2 {
entry:
  %routing_id_size = getelementptr inbounds i8, ptr %this, i64 40
  %0 = load i8, ptr %routing_id_size, align 8
  %conv = zext i8 %0 to i64
  %call = tail call noundef i32 @_ZN3zmq5msg_t9init_sizeEm(ptr noundef nonnull align 8 dereferenceable(64) %msg_, i64 noundef %conv)
  %cmp.not = icmp eq i32 %call, 0
  br i1 %cmp.not, label %do.end, label %if.then

if.then:                                          ; preds = %entry
  %call3 = tail call ptr @__errno_location() #16
  %1 = load i32, ptr %call3, align 4
  %call4 = tail call ptr @strerror(i32 noundef %1) #17
  %2 = load ptr, ptr @stderr, align 8
  %call5 = tail call i32 (ptr, ptr, ...) @fprintf(ptr noundef %2, ptr noundef nonnull @.str, ptr noundef %call4, ptr noundef nonnull @.str.1, i32 noundef 410) #18
  %3 = load ptr, ptr @stderr, align 8
  %call6 = tail call i32 @fflush(ptr noundef %3)
  tail call void @_ZN3zmq9zmq_abortEPKc(ptr noundef %call4)
  br label %do.end

do.end:                                           ; preds = %entry, %if.then
  %4 = load i8, ptr %routing_id_size, align 8
  %cmp10.not = icmp eq i8 %4, 0
  br i1 %cmp10.not, label %if.end17, label %if.then11

if.then11:                                        ; preds = %do.end
  %call12 = tail call noundef ptr @_ZN3zmq5msg_t4dataEv(ptr noundef nonnull align 8 dereferenceable(64) %msg_)
  %routing_id = getelementptr inbounds i8, ptr %this, i64 41
  %5 = load i8, ptr %routing_id_size, align 8
  %conv16 = zext i8 %5 to i64
  tail call void @llvm.memcpy.p0.p0.i64(ptr align 1 %call12, ptr nonnull align 1 %routing_id, i64 %conv16, i1 false)
  br label %if.end17

if.end17:                                         ; preds = %if.then11, %do.end
  %_next_msg = getelementptr inbounds i8, ptr %this, i64 1416
  store i64 ptrtoint (ptr @_ZN3zmq20stream_engine_base_t21pull_msg_from_sessionEPNS_5msg_tE to i64), ptr %_next_msg, align 8
  %_next_msg.repack3 = getelementptr inbounds i8, ptr %this, i64 1424
  store i64 0, ptr %_next_msg.repack3, align 8
  ret i32 0
}